target datalayout = "e-m:e-p270:32:32-p271:32:32-p272:64:64-i64:64-i128:128-f80:128-n8:16:32:64-S128"
target triple = "x86_64-pc-linux-gnu"

%struct.DdGen = type { ptr, i32, i32, %union.anon.0, %struct.anon.3, ptr }
%union.anon.0 = type { %struct.anon }
%struct.anon = type { ptr, double }
%struct.anon.3 = type { i32, ptr }

; Function Attrs: nounwind uwtable
define i32 @Cudd_IsGenEmpty(ptr noundef %0) #0 {
  %2 = alloca i32, align 4
  %3 = alloca ptr, align 8
  store ptr %0, ptr %3, align 8
  %4 = load ptr, ptr %3, align 8
  %5 = icmp eq ptr %4, null
  br i1 %5, label %6, label %7

6:                                                ; preds = %1
  store i32 1, ptr %2, align 4
  br label %13

7:                                                ; preds = %1
  %8 = load ptr, ptr %3, align 8
  %9 = getelementptr inbounds %struct.DdGen, ptr %8, i32 0, i32 2
  %10 = load i32, ptr %9, align 4
  %11 = icmp eq i32 %10, 0
  %12 = zext i1 %11 to i32
  store i32 %12, ptr %2, align 4
  br label %13

13:                                               ; preds = %7, %6
  %14 = load i32, ptr %2, align 4
  ret i32 %14
}